target datalayout = "e-m:e-p270:32:32-p271:32:32-p272:64:64-i64:64-i128:128-f80:128-n8:16:32:64-S128"
target triple = "x86_64-pc-linux-gnu"

%"class.std::basic_ostream" = type { ptr, %"class.std::basic_ios" }
%"class.std::basic_ios" = type { %"class.std::ios_base", ptr, i8, i8, ptr, ptr, ptr, ptr }
%"class.std::ios_base" = type { ptr, i64, i64, i32, i32, i32, ptr, %"struct.std::ios_base::_Words", [8 x %"struct.std::ios_base::_Words"], i32, ptr, %"class.std::locale" }
%"struct.std::ios_base::_Words" = type { ptr, i64 }
%"class.std::locale" = type { ptr }
%class.GPUShader = type <{ %"class.std::__cxx11::basic_string", i32, i32, i8, i8, [6 x i8] }>
%"class.std::__cxx11::basic_string" = type { %"struct.std::__cxx11::basic_string<char>::_Alloc_hider", i64, %union.anon }
%"struct.std::__cxx11::basic_string<char>::_Alloc_hider" = type { ptr }
%union.anon = type { i64, [8 x i8] }

@__GLEW_ARB_vertex_shader = external global i8, align 1
@__glewCreateShader = external global ptr, align 8
@_ZSt4cout = external global %"class.std::basic_ostream", align 8
@.str.4 = private unnamed_addr constant [40 x i8] c"Warning : vertex shader not supported !\00", align 1
@__GLEW_ARB_fragment_shader = external global i8, align 1
@.str.5 = private unnamed_addr constant [42 x i8] c"Warning : fragment shader not supported !\00", align 1
@.str.6 = private unnamed_addr constant [32 x i8] c"Warning : unknown shader type !\00", align 1
@.str.7 = private unnamed_addr constant [18 x i8] c"Warning : shader \00", align 1
@.str.8 = private unnamed_addr constant [18 x i8] c" is not created !\00", align 1

; Function Attrs: mustprogress uwtable
define noundef zeroext i1 @_ZN9GPUShader12createShaderEv(ptr noundef nonnull align 8 dereferenceable(42) %0) #4 align 2 {
  %2 = alloca i1, align 1
  %3 = alloca ptr, align 8
  store ptr %0, ptr %3, align 8
  %4 = load ptr, ptr %3, align 8
  %5 = getelementptr inbounds %class.GPUShader, ptr %4, i32 0, i32 1
  %6 = load i32, ptr %5, align 8
  switch i32 %6, label %33 [
    i32 0, label %7
    i32 1, label %18
    i32 2, label %29
  ]

7:                                                ; preds = %1
  %8 = load i8, ptr @__GLEW_ARB_vertex_shader, align 1
  %9 = icmp ne i8 %8, 0
  br i1 %9, label %10, label %14

10:                                               ; preds = %7
  %11 = load ptr, ptr @__glewCreateShader, align 8
  %12 = call i32 %11(i32 noundef 35633)
  %13 = getelementptr inbounds %class.GPUShader, ptr %4, i32 0, i32 2
  store i32 %12, ptr %13, align 4
  br label %17

14:                                               ; preds = %7
  %15 = call noundef nonnull align 8 dereferenceable(8) ptr @_ZStlsISt11char_traitsIcEERSt13basic_ostreamIcT_ES5_PKc(ptr noundef nonnull align 8 dereferenceable(8) @_ZSt4cout, ptr noundef @.str.4)
  %16 = call noundef nonnull align 8 dereferenceable(8) ptr @_ZNSolsEPFRSoS_E(ptr noundef nonnull align 8 dereferenceable(8) %15, ptr noundef @_ZSt4endlIcSt11char_traitsIcEERSt13basic_ostreamIT_T0_ES6_)
  store i1 false, ptr %2, align 1
  br label %47

17:                                               ; preds = %10
  br label %36

18:                                               ; preds = %1
  %19 = load i8, ptr @__GLEW_ARB_fragment_shader, align 1
  %20 = icmp ne i8 %19, 0
  br i1 %20, label %21, label %25

21:                                               ; preds = %18
  %22 = load ptr, ptr @__glewCreateShader, align 8
  %23 = call i32 %22(i32 noundef 35632)
  %24 = getelementptr inbounds %class.GPUShader, ptr %4, i32 0, i32 2
  store i32 %23, ptr %24, align 4
  br label %28

25:                                               ; preds = %18
  %26 = call noundef nonnull align 8 dereferenceable(8) ptr @_ZStlsISt11char_traitsIcEERSt13basic_ostreamIcT_ES5_PKc(ptr noundef nonnull align 8 dereferenceable(8) @_ZSt4cout, ptr noundef @.str.5)
  %27 = call noundef nonnull align 8 dereferenceable(8) ptr @_ZNSolsEPFRSoS_E(ptr noundef nonnull align 8 dereferenceable(8) %26, ptr noundef @_ZSt4endlIcSt11char_traitsIcEERSt13basic_ostreamIT_T0_ES6_)
  store i1 false, ptr %2, align 1
  br label %47

28:                                               ; preds = %21
  br label %36

29:                                               ; preds = %1
  %30 = load ptr, ptr @__glewCreateShader, align 8
  %31 = call i32 %30(i32 noundef 36313)
  %32 = getelementptr inbounds %class.GPUShader, ptr %4, i32 0, i32 2
  store i32 %31, ptr %32, align 4
  br label %36

33:                                               ; preds = %1
  %34 = call noundef nonnull align 8 dereferenceable(8) ptr @_ZStlsISt11char_traitsIcEERSt13basic_ostreamIcT_ES5_PKc(ptr noundef nonnull align 8 dereferenceable(8) @_ZSt4cout, ptr noundef @.str.6)
  %35 = call noundef nonnull align 8 dereferenceable(8) ptr @_ZNSolsEPFRSoS_E(ptr noundef nonnull align 8 dereferenceable(8) %34, ptr noundef @_ZSt4endlIcSt11char_traitsIcEERSt13basic_ostreamIT_T0_ES6_)
  store i1 false, ptr %2, align 1
  br label %47

36:                                               ; preds = %29, %28, %17
  %37 = getelementptr inbounds %class.GPUShader, ptr %4, i32 0, i32 2
  %38 = load i32, ptr %37, align 4
  %39 = icmp eq i32 %38, 0
  br i1 %39, label %40, label %46

40:                                               ; preds = %36
  %41 = call noundef nonnull align 8 dereferenceable(8) ptr @_ZStlsISt11char_traitsIcEERSt13basic_ostreamIcT_ES5_PKc(ptr noundef nonnull align 8 dereferenceable(8) @_ZSt4cout, ptr noundef @.str.7)
  %42 = getelementptr inbounds %class.GPUShader, ptr %4, i32 0, i32 0
  %43 = call noundef nonnull align 8 dereferenceable(8) ptr @_ZStlsIcSt11char_traitsIcESaIcEERSt13basic_ostreamIT_T0_ES7_RKNSt7__cxx1112basic_stringIS4_S5_T1_EE(ptr noundef nonnull align 8 dereferenceable(8) %41, ptr noundef nonnull align 8 dereferenceable(32) %42)
  %44 = call noundef nonnull align 8 dereferenceable(8) ptr @_ZStlsISt11char_traitsIcEERSt13basic_ostreamIcT_ES5_PKc(ptr noundef nonnull align 8 dereferenceable(8) %43, ptr noundef @.str.8)
  %45 = call noundef nonnull align 8 dereferenceable(8) ptr @_ZNSolsEPFRSoS_E(ptr noundef nonnull align 8 dereferenceable(8) %44, ptr noundef @_ZSt4endlIcSt11char_traitsIcEERSt13basic_ostreamIT_T0_ES6_)
  store i1 false, ptr %2, align 1
  br label %47

46:                                               ; preds = %36
  store i1 true, ptr %2, align 1
  br label %47

47:                                               ; preds = %46, %40, %33, %25, %14
  %48 = load i1, ptr %2, align 1
  ret i1 %48
}