; Function Attrs: mustprogress uwtable
define noundef zeroext i1 @_ZN9GPUShader12createShaderEv(ptr noundef nonnull align 8 dereferenceable(42) %0) local_unnamed_addr #3 align 2 {
  %2 = getelementptr inbounds nuw i8, ptr %0, i64 32
  %3 = load i32, ptr %2, align 8
  switch i32 %3, label %12 [
    i32 0, label %4
    i32 1, label %8
    i32 2, label %14
  ]

4:                                                ; preds = %1
  %5 = load i8, ptr @__GLEW_ARB_vertex_shader, align 1
  %.not2 = icmp eq i8 %5, 0
  br i1 %.not2, label %6, label %14

6:                                                ; preds = %4
  %7 = tail call noundef nonnull align 8 dereferenceable(8) ptr @_ZStlsISt11char_traitsIcEERSt13basic_ostreamIcT_ES5_PKc(ptr noundef nonnull align 8 dereferenceable(8) @_ZSt4cout, ptr noundef nonnull @.str.4)
  br label %.sink.split

8:                                                ; preds = %1
  %9 = load i8, ptr @__GLEW_ARB_fragment_shader, align 1
  %.not = icmp eq i8 %9, 0
  br i1 %.not, label %10, label %14

10:                                               ; preds = %8
  %11 = tail call noundef nonnull align 8 dereferenceable(8) ptr @_ZStlsISt11char_traitsIcEERSt13basic_ostreamIcT_ES5_PKc(ptr noundef nonnull align 8 dereferenceable(8) @_ZSt4cout, ptr noundef nonnull @.str.5)
  br label %.sink.split

12:                                               ; preds = %1
  %13 = tail call noundef nonnull align 8 dereferenceable(8) ptr @_ZStlsISt11char_traitsIcEERSt13basic_ostreamIcT_ES5_PKc(ptr noundef nonnull align 8 dereferenceable(8) @_ZSt4cout, ptr noundef nonnull @.str.6)
  br label %.sink.split

14:                                               ; preds = %1, %8, %4
  %.sink4 = phi i32 [ 35633, %4 ], [ 35632, %8 ], [ 36313, %1 ]
  %15 = load ptr, ptr @__glewCreateShader, align 8
  %16 = tail call i32 %15(i32 noundef %.sink4)
  %17 = getelementptr inbounds nuw i8, ptr %0, i64 36
  store i32 %16, ptr %17, align 4
  %18 = icmp eq i32 %16, 0
  br i1 %18, label %19, label %24

19:                                               ; preds = %14
  %20 = tail call noundef nonnull align 8 dereferenceable(8) ptr @_ZStlsISt11char_traitsIcEERSt13basic_ostreamIcT_ES5_PKc(ptr noundef nonnull align 8 dereferenceable(8) @_ZSt4cout, ptr noundef nonnull @.str.7)
  %21 = tail call noundef nonnull align 8 dereferenceable(8) ptr @_ZStlsIcSt11char_traitsIcESaIcEERSt13basic_ostreamIT_T0_ES7_RKNSt7__cxx1112basic_stringIS4_S5_T1_EE(ptr noundef nonnull align 8 dereferenceable(8) %20, ptr noundef nonnull align 8 dereferenceable(32) %0)
  %22 = tail call noundef nonnull align 8 dereferenceable(8) ptr @_ZStlsISt11char_traitsIcEERSt13basic_ostreamIcT_ES5_PKc(ptr noundef nonnull align 8 dereferenceable(8) %21, ptr noundef nonnull @.str.8)
  br label %.sink.split

.sink.split:                                      ; preds = %6, %10, %12, %19
  %.sink = phi ptr [ %22, %19 ], [ %13, %12 ], [ %11, %10 ], [ %7, %6 ]
  %23 = tail call noundef nonnull align 8 dereferenceable(8) ptr @_ZNSolsEPFRSoS_E(ptr noundef nonnull align 8 dereferenceable(8) %.sink, ptr noundef nonnull @_ZSt4endlIcSt11char_traitsIcEERSt13basic_ostreamIT_T0_ES6_)
  br label %24

24:                                               ; preds = %.sink.split, %14
  %.0 = phi i1 [ true, %14 ], [ false, %.sink.split ]
  ret i1 %.0
}